; Function Attrs: mustprogress uwtable
define noundef zeroext i1 @_ZNK8facebook5velox6common10MultiRange10testDoubleEd(ptr nocapture noundef nonnull readonly align 8 dereferenceable(48) %this, double noundef %value) unnamed_addr #0 align 2 {
entry:
  %0 = fcmp uno double %value, 0.000000e+00
  br i1 %0, label %if.then, label %if.end

if.then:                                          ; preds = %entry
  %nanAllowed_ = getelementptr inbounds i8, ptr %this, i64 40
  %1 = load i8, ptr %nanAllowed_, align 8
  %2 = and i8 %1, 1
  %tobool = icmp ne i8 %2, 0
  br label %return

if.end:                                           ; preds = %entry
  %filters_ = getelementptr inbounds i8, ptr %this, i64 16
  %3 = load ptr, ptr %filters_, align 8
  %_M_finish.i = getelementptr inbounds i8, ptr %this, i64 24
  %4 = load ptr, ptr %_M_finish.i, align 8
  %cmp.i.not5 = icmp eq ptr %3, %4
  br i1 %cmp.i.not5, label %return, label %for.body

for.body:                                         ; preds = %if.end, %for.body
  %__begin2.sroa.0.06 = phi ptr [ %incdec.ptr.i, %for.body ], [ %3, %if.end ]
  %5 = load ptr, ptr %__begin2.sroa.0.06, align 8
  %vtable = load ptr, ptr %5, align 8
  %vfn = getelementptr inbounds i8, ptr %vtable, i64 96
  %6 = load ptr, ptr %vfn, align 8
  %call8 = tail call noundef zeroext i1 %6(ptr noundef nonnull align 8 dereferenceable(16) %5, double noundef %value)
  %incdec.ptr.i = getelementptr inbounds i8, ptr %__begin2.sroa.0.06, i64 8
  %cmp.i.not = icmp eq ptr %incdec.ptr.i, %4
  %or.cond = select i1 %call8, i1 true, i1 %cmp.i.not
  br i1 %or.cond, label %return, label %for.body

return:                                           ; preds = %for.body, %if.end, %if.then
  %retval.0 = phi i1 [ %tobool, %if.then ], [ false, %if.end ], [ %call8, %for.body ]
  ret i1 %retval.0
}